; Function Attrs: nounwind sspstrong uwtable
define internal range(i64 1, 0) i64 @arith_seq_hash(i64 noundef %0) #0 {
  %2 = load i64, ptr @id_exclude_end, align 8, !tbaa !7
  %3 = tail call i64 @rb_ivar_get(i64 noundef %0, i64 noundef %2) #18
  %4 = and i64 %3, -5
  %5 = icmp ne i64 %4, 0
  %6 = zext i1 %5 to i64
  %7 = tail call i64 @rb_hash_start(i64 noundef %6) #18
  %8 = load i64, ptr @id_begin, align 8, !tbaa !7
  %9 = tail call i64 @rb_ivar_get(i64 noundef %0, i64 noundef %8) #18
  %10 = tail call i64 @rb_hash(i64 noundef %9) #18
  %11 = and i64 %10, 1
  %.not.i = icmp eq i64 %11, 0
  br i1 %.not.i, label %14, label %12

12:                                               ; preds = %1
  %13 = ashr i64 %10, 1
  br label %rb_num2long_inline.exit

14:                                               ; preds = %1
  %15 = tail call i64 @rb_num2long(i64 noundef %10) #18
  br label %rb_num2long_inline.exit

rb_num2long_inline.exit:                          ; preds = %12, %14
  %.0.i = phi i64 [ %13, %12 ], [ %15, %14 ]
  %16 = load i64, ptr @id_end, align 8, !tbaa !7
  %17 = tail call i64 @rb_ivar_get(i64 noundef %0, i64 noundef %16) #18
  %18 = tail call i64 @rb_hash(i64 noundef %17) #18
  %19 = and i64 %18, 1
  %.not.i12 = icmp eq i64 %19, 0
  br i1 %.not.i12, label %22, label %20

20:                                               ; preds = %rb_num2long_inline.exit
  %21 = ashr i64 %18, 1
  br label %rb_num2long_inline.exit14

22:                                               ; preds = %rb_num2long_inline.exit
  %23 = tail call i64 @rb_num2long(i64 noundef %18) #18
  br label %rb_num2long_inline.exit14

rb_num2long_inline.exit14:                        ; preds = %20, %22
  %.0.i13 = phi i64 [ %21, %20 ], [ %23, %22 ]
  %24 = load i64, ptr @id_step, align 8, !tbaa !7
  %25 = tail call i64 @rb_ivar_get(i64 noundef %0, i64 noundef %24) #18
  %26 = tail call i64 @rb_hash(i64 noundef %25) #18
  %27 = and i64 %26, 1
  %.not.i15 = icmp eq i64 %27, 0
  br i1 %.not.i15, label %30, label %28

28:                                               ; preds = %rb_num2long_inline.exit14
  %29 = ashr i64 %26, 1
  br label %rb_num2long_inline.exit17

30:                                               ; preds = %rb_num2long_inline.exit14
  %31 = tail call i64 @rb_num2long(i64 noundef %26) #18
  br label %rb_num2long_inline.exit17

rb_num2long_inline.exit17:                        ; preds = %28, %30
  %.0.i16 = phi i64 [ %29, %28 ], [ %31, %30 ]
  %32 = tail call i64 @rb_st_hash_uint(i64 noundef %7, i64 noundef %.0.i) #23
  %33 = tail call i64 @rb_st_hash_uint(i64 noundef %32, i64 noundef %.0.i13) #23
  %34 = tail call i64 @rb_st_hash_uint(i64 noundef %33, i64 noundef %.0.i16) #23
  %35 = tail call i64 @rb_st_hash_end(i64 noundef %34) #23
  %36 = and i64 %35, 4611686018427387903
  %37 = icmp slt i64 %35, 0
  %masksel.i = select i1 %37, i64 -4611686018427387904, i64 0
  %.0.i18 = or disjoint i64 %masksel.i, %36
  %38 = shl nsw i64 %.0.i18, 1
  %39 = or disjoint i64 %38, 1
  ret i64 %39
}